target datalayout = "e-m:e-p270:32:32-p271:32:32-p272:64:64-i64:64-i128:128-f80:128-n8:16:32:64-S128"
target triple = "x86_64-pc-linux-gnu"

%struct.Abc_Ntk_t_ = type { i32, i32, ptr, ptr, ptr, ptr, ptr, ptr, ptr, ptr, ptr, ptr, ptr, [11 x i32], i32, i32, i32, i32, ptr, i32, ptr, ptr, i32, i32, i32, double, i32, %struct.Vec_Int_t_, ptr, ptr, ptr, ptr, ptr, float, i32, ptr, ptr, ptr, ptr, ptr, ptr, ptr, ptr, ptr, ptr, ptr, ptr, ptr, ptr, ptr, ptr, ptr, ptr, ptr, ptr, ptr, ptr }
%struct.Vec_Int_t_ = type { i32, i32, ptr }
%struct.Abc_Obj_t_ = type { ptr, ptr, i32, i32, %struct.Vec_Int_t_, %struct.Vec_Int_t_, %union.anon, %union.anon.0 }
%union.anon = type { ptr }
%union.anon.0 = type { ptr }
%struct.Vec_Ptr_t_ = type { i32, i32, ptr }

; Function Attrs: inlinehint nounwind uwtable
define internal void @Vec_PtrGrow(ptr noundef %0, i32 noundef %1) #2 {
  %3 = alloca ptr, align 8
  %4 = alloca i32, align 4
  store ptr %0, ptr %3, align 8, !tbaa !39
  store i32 %1, ptr %4, align 4, !tbaa !36
  %5 = load ptr, ptr %3, align 8, !tbaa !39
  %6 = getelementptr inbounds nuw %struct.Vec_Ptr_t_, ptr %5, i32 0, i32 0
  %7 = load i32, ptr %6, align 8, !tbaa !43
  %8 = load i32, ptr %4, align 4, !tbaa !36
  %9 = icmp sge i32 %7, %8
  br i1 %9, label %10, label %11

10:                                               ; preds = %2
  br label %36

11:                                               ; preds = %2
  %12 = load ptr, ptr %3, align 8, !tbaa !39
  %13 = getelementptr inbounds nuw %struct.Vec_Ptr_t_, ptr %12, i32 0, i32 2
  %14 = load ptr, ptr %13, align 8, !tbaa !33
  %15 = icmp ne ptr %14, null
  br i1 %15, label %16, label %24

16:                                               ; preds = %11
  %17 = load ptr, ptr %3, align 8, !tbaa !39
  %18 = getelementptr inbounds nuw %struct.Vec_Ptr_t_, ptr %17, i32 0, i32 2
  %19 = load ptr, ptr %18, align 8, !tbaa !33
  %20 = load i32, ptr %4, align 4, !tbaa !36
  %21 = sext i32 %20 to i64
  %22 = mul i64 8, %21
  %23 = call ptr @realloc(ptr noundef %19, i64 noundef %22) #15
  br label %29

24:                                               ; preds = %11
  %25 = load i32, ptr %4, align 4, !tbaa !36
  %26 = sext i32 %25 to i64
  %27 = mul i64 8, %26
  %28 = call noalias ptr @malloc(i64 noundef %27) #12
  br label %29

29:                                               ; preds = %24, %16
  %30 = phi ptr [ %23, %16 ], [ %28, %24 ]
  %31 = load ptr, ptr %3, align 8, !tbaa !39
  %32 = getelementptr inbounds nuw %struct.Vec_Ptr_t_, ptr %31, i32 0, i32 2
  store ptr %30, ptr %32, align 8, !tbaa !33
  %33 = load i32, ptr %4, align 4, !tbaa !36
  %34 = load ptr, ptr %3, align 8, !tbaa !39
  %35 = getelementptr inbounds nuw %struct.Vec_Ptr_t_, ptr %34, i32 0, i32 0
  store i32 %33, ptr %35, align 8, !tbaa !43
  br label %36

36:                                               ; preds = %29, %10
  ret void
}

; Function Attrs: inlinehint nounwind uwtable
define internal ptr @Abc_ObjFanin0(ptr noundef %0) #2 {
  %2 = alloca ptr, align 8
  store ptr %0, ptr %2, align 8, !tbaa !3
  %3 = load ptr, ptr %2, align 8, !tbaa !3
  %4 = getelementptr inbounds nuw %struct.Abc_Obj_t_, ptr %3, i32 0, i32 0
  %5 = load ptr, ptr %4, align 8, !tbaa !29
  %6 = getelementptr inbounds nuw %struct.Abc_Ntk_t_, ptr %5, i32 0, i32 5
  %7 = load ptr, ptr %6, align 8, !tbaa !32
  %8 = getelementptr inbounds nuw %struct.Vec_Ptr_t_, ptr %7, i32 0, i32 2
  %9 = load ptr, ptr %8, align 8, !tbaa !33
  %10 = load ptr, ptr %2, align 8, !tbaa !3
  %11 = getelementptr inbounds nuw %struct.Abc_Obj_t_, ptr %10, i32 0, i32 4
  %12 = getelementptr inbounds nuw %struct.Vec_Int_t_, ptr %11, i32 0, i32 2
  %13 = load ptr, ptr %12, align 8, !tbaa !38
  %14 = getelementptr inbounds i32, ptr %13, i64 0
  %15 = load i32, ptr %14, align 4, !tbaa !36
  %16 = sext i32 %15 to i64
  %17 = getelementptr inbounds ptr, ptr %9, i64 %16
  %18 = load ptr, ptr %17, align 8, !tbaa !37
  ret ptr %18
}

; Function Attrs: inlinehint nounwind uwtable
define internal i32 @Abc_ObjIsCo(ptr noundef %0) #2 {
  %2 = alloca ptr, align 8
  store ptr %0, ptr %2, align 8, !tbaa !3
  %3 = load ptr, ptr %2, align 8, !tbaa !3
  %4 = getelementptr inbounds nuw %struct.Abc_Obj_t_, ptr %3, i32 0, i32 3
  %5 = load i32, ptr %4, align 4
  %6 = and i32 %5, 15
  %7 = icmp eq i32 %6, 3
  br i1 %7, label %14, label %8

8:                                                ; preds = %1
  %9 = load ptr, ptr %2, align 8, !tbaa !3
  %10 = getelementptr inbounds nuw %struct.Abc_Obj_t_, ptr %9, i32 0, i32 3
  %11 = load i32, ptr %10, align 4
  %12 = and i32 %11, 15
  %13 = icmp eq i32 %12, 4
  br label %14

14:                                               ; preds = %8, %1
  %15 = phi i1 [ true, %1 ], [ %13, %8 ]
  %16 = zext i1 %15 to i32
  ret i32 %16
}

; Function Attrs: inlinehint nounwind uwtable
define internal ptr @Abc_ObjFanout0(ptr noundef %0) #2 {
  %2 = alloca ptr, align 8
  store ptr %0, ptr %2, align 8, !tbaa !3
  %3 = load ptr, ptr %2, align 8, !tbaa !3
  %4 = getelementptr inbounds nuw %struct.Abc_Obj_t_, ptr %3, i32 0, i32 0
  %5 = load ptr, ptr %4, align 8, !tbaa !29
  %6 = getelementptr inbounds nuw %struct.Abc_Ntk_t_, ptr %5, i32 0, i32 5
  %7 = load ptr, ptr %6, align 8, !tbaa !32
  %8 = getelementptr inbounds nuw %struct.Vec_Ptr_t_, ptr %7, i32 0, i32 2
  %9 = load ptr, ptr %8, align 8, !tbaa !33
  %10 = load ptr, ptr %2, align 8, !tbaa !3
  %11 = getelementptr inbounds nuw %struct.Abc_Obj_t_, ptr %10, i32 0, i32 5
  %12 = getelementptr inbounds nuw %struct.Vec_Int_t_, ptr %11, i32 0, i32 2
  %13 = load ptr, ptr %12, align 8, !tbaa !35
  %14 = getelementptr inbounds i32, ptr %13, i64 0
  %15 = load i32, ptr %14, align 4, !tbaa !36
  %16 = sext i32 %15 to i64
  %17 = getelementptr inbounds ptr, ptr %9, i64 %16
  %18 = load ptr, ptr %17, align 8, !tbaa !37
  ret ptr %18
}

; Function Attrs: inlinehint nounwind uwtable
define internal i32 @Abc_ObjIsNode(ptr noundef %0) #2 {
  %2 = alloca ptr, align 8
  store ptr %0, ptr %2, align 8, !tbaa !3
  %3 = load ptr, ptr %2, align 8, !tbaa !3
  %4 = getelementptr inbounds nuw %struct.Abc_Obj_t_, ptr %3, i32 0, i32 3
  %5 = load i32, ptr %4, align 4
  %6 = and i32 %5, 15
  %7 = icmp eq i32 %6, 7
  %8 = zext i1 %7 to i32
  ret i32 %8
}

; Function Attrs: inlinehint nounwind uwtable
define internal i32 @Abc_ObjIsCi(ptr noundef %0) #2 {
  %2 = alloca ptr, align 8
  store ptr %0, ptr %2, align 8, !tbaa !3
  %3 = load ptr, ptr %2, align 8, !tbaa !3
  %4 = getelementptr inbounds nuw %struct.Abc_Obj_t_, ptr %3, i32 0, i32 3
  %5 = load i32, ptr %4, align 4
  %6 = and i32 %5, 15
  %7 = icmp eq i32 %6, 2
  br i1 %7, label %14, label %8

8:                                                ; preds = %1
  %9 = load ptr, ptr %2, align 8, !tbaa !3
  %10 = getelementptr inbounds nuw %struct.Abc_Obj_t_, ptr %9, i32 0, i32 3
  %11 = load i32, ptr %10, align 4
  %12 = and i32 %11, 15
  %13 = icmp eq i32 %12, 5
  br label %14

14:                                               ; preds = %8, %1
  %15 = phi i1 [ true, %1 ], [ %13, %8 ]
  %16 = zext i1 %15 to i32
  ret i32 %16
}

; Function Attrs: inlinehint nounwind uwtable
define internal i32 @Abc_ObjIsBox(ptr noundef %0) #2 {
  %2 = alloca ptr, align 8
  store ptr %0, ptr %2, align 8, !tbaa !3
  %3 = load ptr, ptr %2, align 8, !tbaa !3
  %4 = getelementptr inbounds nuw %struct.Abc_Obj_t_, ptr %3, i32 0, i32 3
  %5 = load i32, ptr %4, align 4
  %6 = and i32 %5, 15
  %7 = icmp eq i32 %6, 8
  br i1 %7, label %20, label %8

8:                                                ; preds = %1
  %9 = load ptr, ptr %2, align 8, !tbaa !3
  %10 = getelementptr inbounds nuw %struct.Abc_Obj_t_, ptr %9, i32 0, i32 3
  %11 = load i32, ptr %10, align 4
  %12 = and i32 %11, 15
  %13 = icmp eq i32 %12, 9
  br i1 %13, label %20, label %14

14:                                               ; preds = %8
  %15 = load ptr, ptr %2, align 8, !tbaa !3
  %16 = getelementptr inbounds nuw %struct.Abc_Obj_t_, ptr %15, i32 0, i32 3
  %17 = load i32, ptr %16, align 4
  %18 = and i32 %17, 15
  %19 = icmp eq i32 %18, 10
  br label %20

20:                                               ; preds = %14, %8, %1
  %21 = phi i1 [ true, %8 ], [ true, %1 ], [ %19, %14 ]
  %22 = zext i1 %21 to i32
  ret i32 %22
}

; Function Attrs: inlinehint nounwind uwtable
define internal i32 @Abc_ObjIsNet(ptr noundef %0) #2 {
  %2 = alloca ptr, align 8
  store ptr %0, ptr %2, align 8, !tbaa !3
  %3 = load ptr, ptr %2, align 8, !tbaa !3
  %4 = getelementptr inbounds nuw %struct.Abc_Obj_t_, ptr %3, i32 0, i32 3
  %5 = load i32, ptr %4, align 4
  %6 = and i32 %5, 15
  %7 = icmp eq i32 %6, 6
  %8 = zext i1 %7 to i32
  ret i32 %8
}

; Function Attrs: inlinehint nounwind uwtable
define internal ptr @Vec_PtrEntry(ptr noundef %0, i32 noundef %1) #2 {
  %3 = alloca ptr, align 8
  %4 = alloca i32, align 4
  store ptr %0, ptr %3, align 8, !tbaa !39
  store i32 %1, ptr %4, align 4, !tbaa !36
  %5 = load ptr, ptr %3, align 8, !tbaa !39
  %6 = getelementptr inbounds nuw %struct.Vec_Ptr_t_, ptr %5, i32 0, i32 2
  %7 = load ptr, ptr %6, align 8, !tbaa !33
  %8 = load i32, ptr %4, align 4, !tbaa !36
  %9 = sext i32 %8 to i64
  %10 = getelementptr inbounds ptr, ptr %7, i64 %9
  %11 = load ptr, ptr %10, align 8, !tbaa !37
  ret ptr %11
}

; Function Attrs: inlinehint nounwind uwtable
define internal i32 @Vec_PtrSize(ptr noundef %0) #2 {
  %2 = alloca ptr, align 8
  store ptr %0, ptr %2, align 8, !tbaa !39
  %3 = load ptr, ptr %2, align 8, !tbaa !39
  %4 = getelementptr inbounds nuw %struct.Vec_Ptr_t_, ptr %3, i32 0, i32 1
  %5 = load i32, ptr %4, align 4, !tbaa !42
  ret i32 %5
}

; Function Attrs: inlinehint nounwind uwtable
define internal void @Vec_PtrPush(ptr noundef %0, ptr noundef %1) #2 {
  %3 = alloca ptr, align 8
  %4 = alloca ptr, align 8
  store ptr %0, ptr %3, align 8, !tbaa !39
  store ptr %1, ptr %4, align 8, !tbaa !37
  %5 = load ptr, ptr %3, align 8, !tbaa !39
  %6 = getelementptr inbounds nuw %struct.Vec_Ptr_t_, ptr %5, i32 0, i32 1
  %7 = load i32, ptr %6, align 4, !tbaa !42
  %8 = load ptr, ptr %3, align 8, !tbaa !39
  %9 = getelementptr inbounds nuw %struct.Vec_Ptr_t_, ptr %8, i32 0, i32 0
  %10 = load i32, ptr %9, align 8, !tbaa !43
  %11 = icmp eq i32 %7, %10
  br i1 %11, label %12, label %26

12:                                               ; preds = %2
  %13 = load ptr, ptr %3, align 8, !tbaa !39
  %14 = getelementptr inbounds nuw %struct.Vec_Ptr_t_, ptr %13, i32 0, i32 0
  %15 = load i32, ptr %14, align 8, !tbaa !43
  %16 = icmp slt i32 %15, 16
  br i1 %16, label %17, label %19

17:                                               ; preds = %12
  %18 = load ptr, ptr %3, align 8, !tbaa !39
  call void @Vec_PtrGrow(ptr noundef %18, i32 noundef 16)
  br label %25

19:                                               ; preds = %12
  %20 = load ptr, ptr %3, align 8, !tbaa !39
  %21 = load ptr, ptr %3, align 8, !tbaa !39
  %22 = getelementptr inbounds nuw %struct.Vec_Ptr_t_, ptr %21, i32 0, i32 0
  %23 = load i32, ptr %22, align 8, !tbaa !43
  %24 = mul nsw i32 2, %23
  call void @Vec_PtrGrow(ptr noundef %20, i32 noundef %24)
  br label %25

25:                                               ; preds = %19, %17
  br label %26

26:                                               ; preds = %25, %2
  %27 = load ptr, ptr %4, align 8, !tbaa !37
  %28 = load ptr, ptr %3, align 8, !tbaa !39
  %29 = getelementptr inbounds nuw %struct.Vec_Ptr_t_, ptr %28, i32 0, i32 2
  %30 = load ptr, ptr %29, align 8, !tbaa !33
  %31 = load ptr, ptr %3, align 8, !tbaa !39
  %32 = getelementptr inbounds nuw %struct.Vec_Ptr_t_, ptr %31, i32 0, i32 1
  %33 = load i32, ptr %32, align 4, !tbaa !42
  %34 = add nsw i32 %33, 1
  store i32 %34, ptr %32, align 4, !tbaa !42
  %35 = sext i32 %33 to i64
  %36 = getelementptr inbounds ptr, ptr %30, i64 %35
  store ptr %27, ptr %36, align 8, !tbaa !37
  ret void
}

; Function Attrs: nounwind uwtable
define ptr @Ptr_AbcObjName(ptr noundef %0) #0 {
  %2 = alloca ptr, align 8
  %3 = alloca ptr, align 8
  store ptr %0, ptr %3, align 8, !tbaa !3
  %4 = load ptr, ptr %3, align 8, !tbaa !3
  %5 = call i32 @Abc_ObjIsNet(ptr noundef %4)
  %6 = icmp ne i32 %5, 0
  br i1 %6, label %11, label %7

7:                                                ; preds = %1
  %8 = load ptr, ptr %3, align 8, !tbaa !3
  %9 = call i32 @Abc_ObjIsBox(ptr noundef %8)
  %10 = icmp ne i32 %9, 0
  br i1 %10, label %11, label %14

11:                                               ; preds = %7, %1
  %12 = load ptr, ptr %3, align 8, !tbaa !3
  %13 = call ptr @Abc_ObjName(ptr noundef %12)
  store ptr %13, ptr %2, align 8
  br label %35

14:                                               ; preds = %7
  %15 = load ptr, ptr %3, align 8, !tbaa !3
  %16 = call i32 @Abc_ObjIsCi(ptr noundef %15)
  %17 = icmp ne i32 %16, 0
  br i1 %17, label %22, label %18

18:                                               ; preds = %14
  %19 = load ptr, ptr %3, align 8, !tbaa !3
  %20 = call i32 @Abc_ObjIsNode(ptr noundef %19)
  %21 = icmp ne i32 %20, 0
  br i1 %21, label %22, label %26

22:                                               ; preds = %18, %14
  %23 = load ptr, ptr %3, align 8, !tbaa !3
  %24 = call ptr @Abc_ObjFanout0(ptr noundef %23)
  %25 = call ptr @Ptr_AbcObjName(ptr noundef %24)
  store ptr %25, ptr %2, align 8
  br label %35

26:                                               ; preds = %18
  %27 = load ptr, ptr %3, align 8, !tbaa !3
  %28 = call i32 @Abc_ObjIsCo(ptr noundef %27)
  %29 = icmp ne i32 %28, 0
  br i1 %29, label %30, label %34

30:                                               ; preds = %26
  %31 = load ptr, ptr %3, align 8, !tbaa !3
  %32 = call ptr @Abc_ObjFanin0(ptr noundef %31)
  %33 = call ptr @Ptr_AbcObjName(ptr noundef %32)
  store ptr %33, ptr %2, align 8
  br label %35

34:                                               ; preds = %26
  store ptr null, ptr %2, align 8
  br label %35

35:                                               ; preds = %34, %30, %22, %11
  %36 = load ptr, ptr %2, align 8
  ret ptr %36
}

; Function Attrs: inlinehint nounwind uwtable
define internal ptr @Abc_NtkPo(ptr noundef %0, i32 noundef %1) #2 {
  %3 = alloca ptr, align 8
  %4 = alloca i32, align 4
  store ptr %0, ptr %3, align 8, !tbaa !44
  store i32 %1, ptr %4, align 4, !tbaa !36
  %5 = load ptr, ptr %3, align 8, !tbaa !44
  %6 = getelementptr inbounds nuw %struct.Abc_Ntk_t_, ptr %5, i32 0, i32 7
  %7 = load ptr, ptr %6, align 8, !tbaa !52
  %8 = load i32, ptr %4, align 4, !tbaa !36
  %9 = call ptr @Vec_PtrEntry(ptr noundef %7, i32 noundef %8)
  ret ptr %9
}

; Function Attrs: inlinehint nounwind uwtable
define internal ptr @Vec_PtrAllocExact(i32 noundef %0) #2 {
  %2 = alloca i32, align 4
  %3 = alloca ptr, align 8
  store i32 %0, ptr %2, align 4, !tbaa !36
  call void @llvm.lifetime.start.p0(i64 8, ptr %3) #11
  %4 = call noalias ptr @malloc(i64 noundef 16) #12
  store ptr %4, ptr %3, align 8, !tbaa !39
  %5 = load ptr, ptr %3, align 8, !tbaa !39
  %6 = getelementptr inbounds nuw %struct.Vec_Ptr_t_, ptr %5, i32 0, i32 1
  store i32 0, ptr %6, align 4, !tbaa !42
  %7 = load i32, ptr %2, align 4, !tbaa !36
  %8 = load ptr, ptr %3, align 8, !tbaa !39
  %9 = getelementptr inbounds nuw %struct.Vec_Ptr_t_, ptr %8, i32 0, i32 0
  store i32 %7, ptr %9, align 8, !tbaa !43
  %10 = load ptr, ptr %3, align 8, !tbaa !39
  %11 = getelementptr inbounds nuw %struct.Vec_Ptr_t_, ptr %10, i32 0, i32 0
  %12 = load i32, ptr %11, align 8, !tbaa !43
  %13 = icmp ne i32 %12, 0
  br i1 %13, label %14, label %21

14:                                               ; preds = %1
  %15 = load ptr, ptr %3, align 8, !tbaa !39
  %16 = getelementptr inbounds nuw %struct.Vec_Ptr_t_, ptr %15, i32 0, i32 0
  %17 = load i32, ptr %16, align 8, !tbaa !43
  %18 = sext i32 %17 to i64
  %19 = mul i64 8, %18
  %20 = call noalias ptr @malloc(i64 noundef %19) #12
  br label %22

21:                                               ; preds = %1
  br label %22

22:                                               ; preds = %21, %14
  %23 = phi ptr [ %20, %14 ], [ null, %21 ]
  %24 = load ptr, ptr %3, align 8, !tbaa !39
  %25 = getelementptr inbounds nuw %struct.Vec_Ptr_t_, ptr %24, i32 0, i32 2
  store ptr %23, ptr %25, align 8, !tbaa !33
  %26 = load ptr, ptr %3, align 8, !tbaa !39
  call void @llvm.lifetime.end.p0(i64 8, ptr %3) #11
  ret ptr %26
}

; Function Attrs: inlinehint nounwind uwtable
define internal i32 @Abc_NtkPoNum(ptr noundef %0) #2 {
  %2 = alloca ptr, align 8
  store ptr %0, ptr %2, align 8, !tbaa !44
  %3 = load ptr, ptr %2, align 8, !tbaa !44
  %4 = getelementptr inbounds nuw %struct.Abc_Ntk_t_, ptr %3, i32 0, i32 7
  %5 = load ptr, ptr %4, align 8, !tbaa !52
  %6 = call i32 @Vec_PtrSize(ptr noundef %5)
  ret i32 %6
}

; Function Attrs: nounwind uwtable
define ptr @Ptr_AbcDeriveOutputs(ptr noundef %0) #0 {
  %2 = alloca ptr, align 8
  %3 = alloca ptr, align 8
  %4 = alloca i32, align 4
  %5 = alloca ptr, align 8
  store ptr %0, ptr %2, align 8, !tbaa !44
  call void @llvm.lifetime.start.p0(i64 8, ptr %3) #11
  call void @llvm.lifetime.start.p0(i64 4, ptr %4) #11
  call void @llvm.lifetime.start.p0(i64 8, ptr %5) #11
  %6 = load ptr, ptr %2, align 8, !tbaa !44
  %7 = call i32 @Abc_NtkPoNum(ptr noundef %6)
  %8 = call ptr @Vec_PtrAllocExact(i32 noundef %7)
  store ptr %8, ptr %5, align 8, !tbaa !39
  store i32 0, ptr %4, align 4, !tbaa !36
  br label %9

9:                                                ; preds = %24, %1
  %10 = load i32, ptr %4, align 4, !tbaa !36
  %11 = load ptr, ptr %2, align 8, !tbaa !44
  %12 = call i32 @Abc_NtkPoNum(ptr noundef %11)
  %13 = icmp slt i32 %10, %12
  br i1 %13, label %14, label %18

14:                                               ; preds = %9
  %15 = load ptr, ptr %2, align 8, !tbaa !44
  %16 = load i32, ptr %4, align 4, !tbaa !36
  %17 = call ptr @Abc_NtkPo(ptr noundef %15, i32 noundef %16)
  store ptr %17, ptr %3, align 8, !tbaa !3
  br label %18

18:                                               ; preds = %14, %9
  %19 = phi i1 [ false, %9 ], [ true, %14 ]
  br i1 %19, label %20, label %27

20:                                               ; preds = %18
  %21 = load ptr, ptr %5, align 8, !tbaa !39
  %22 = load ptr, ptr %3, align 8, !tbaa !3
  %23 = call ptr @Ptr_AbcObjName(ptr noundef %22)
  call void @Vec_PtrPush(ptr noundef %21, ptr noundef %23)
  br label %24

24:                                               ; preds = %20
  %25 = load i32, ptr %4, align 4, !tbaa !36
  %26 = add nsw i32 %25, 1
  store i32 %26, ptr %4, align 4, !tbaa !36
  br label %9, !llvm.loop !57

27:                                               ; preds = %18
  %28 = load ptr, ptr %5, align 8, !tbaa !39
  call void @llvm.lifetime.end.p0(i64 8, ptr %5) #11
  call void @llvm.lifetime.end.p0(i64 4, ptr %4) #11
  call void @llvm.lifetime.end.p0(i64 8, ptr %3) #11
  ret ptr %28
}