; Function Attrs: nounwind uwtable
define noalias noundef ptr @Ptr_AbcDeriveOutputs(ptr noundef readonly captures(none) %0) local_unnamed_addr #0 {
  %2 = getelementptr i8, ptr %0, i64 48
  %.val8 = load ptr, ptr %2, align 8, !tbaa !46
  %3 = getelementptr i8, ptr %.val8, i64 4
  %.val8.val = load i32, ptr %3, align 4, !tbaa !35
  %4 = tail call noalias dereferenceable_or_null(16) ptr @malloc(i64 noundef 16) #20
  %5 = getelementptr inbounds nuw i8, ptr %4, i64 4
  store i32 0, ptr %5, align 4, !tbaa !35
  store i32 %.val8.val, ptr %4, align 8, !tbaa !36
  %.not.i = icmp eq i32 %.val8.val, 0
  br i1 %.not.i, label %Vec_PtrAllocExact.exit.thread, label %Vec_PtrAllocExact.exit

Vec_PtrAllocExact.exit.thread:                    ; preds = %1
  %6 = getelementptr inbounds nuw i8, ptr %4, i64 8
  store ptr null, ptr %6, align 8, !tbaa !32
  br label %.critedge

Vec_PtrAllocExact.exit:                           ; preds = %1
  %7 = sext i32 %.val8.val to i64
  %8 = shl nsw i64 %7, 3
  %9 = tail call noalias ptr @malloc(i64 noundef %8) #20
  %10 = getelementptr inbounds nuw i8, ptr %4, i64 8
  store ptr %9, ptr %10, align 8, !tbaa !32
  %11 = icmp sgt i32 %.val8.val, 0
  br i1 %11, label %.lr.ph, label %.critedge

.lr.ph:                                           ; preds = %Vec_PtrAllocExact.exit, %Vec_PtrPush.exit
  %12 = phi i32 [ %56, %Vec_PtrPush.exit ], [ %.val8.val, %Vec_PtrAllocExact.exit ]
  %13 = phi i32 [ %58, %Vec_PtrPush.exit ], [ 0, %Vec_PtrAllocExact.exit ]
  %indvars.iv = phi i64 [ %indvars.iv.next, %Vec_PtrPush.exit ], [ 0, %Vec_PtrAllocExact.exit ]
  %.val914 = phi ptr [ %.val9, %Vec_PtrPush.exit ], [ %.val8, %Vec_PtrAllocExact.exit ]
  %14 = getelementptr i8, ptr %.val914, i64 8
  %.val.val = load ptr, ptr %14, align 8, !tbaa !32
  %15 = getelementptr inbounds nuw ptr, ptr %.val.val, i64 %indvars.iv
  %16 = load ptr, ptr %15, align 8, !tbaa !34
  %17 = getelementptr i8, ptr %16, i64 20
  %.val28.i = load i32, ptr %17, align 4
  %18 = and i32 %.val28.i, 15
  %.not29.i = icmp eq i32 %18, 6
  br i1 %.not29.i, label %._crit_edge.i, label %.lr.ph.i

.lr.ph.i:                                         ; preds = %.lr.ph, %tailrecurse.backedge.i
  %19 = phi i32 [ %30, %tailrecurse.backedge.i ], [ %18, %.lr.ph ]
  %.val31.i = phi i32 [ %.val.i, %tailrecurse.backedge.i ], [ %.val28.i, %.lr.ph ]
  %.tr30.i = phi ptr [ %.tr.be.i, %tailrecurse.backedge.i ], [ %16, %.lr.ph ]
  %20 = and i32 %.val31.i, 14
  %switch.i.i = icmp ne i32 %20, 8
  %21 = icmp ne i32 %19, 10
  %narrow.i.not.i = and i1 %21, %switch.i.i
  br i1 %narrow.i.not.i, label %23, label %._crit_edge.i

._crit_edge.i:                                    ; preds = %tailrecurse.backedge.i, %.lr.ph.i, %.lr.ph
  %.tr.lcssa.i = phi ptr [ %16, %.lr.ph ], [ %.tr.be.i, %tailrecurse.backedge.i ], [ %.tr30.i, %.lr.ph.i ]
  %22 = tail call ptr @Abc_ObjName(ptr noundef nonnull %.tr.lcssa.i) #19
  %.pre = load i32, ptr %5, align 4, !tbaa !35
  %.pre16 = load i32, ptr %4, align 8, !tbaa !36
  br label %Ptr_AbcObjName.exit

23:                                               ; preds = %.lr.ph.i
  switch i32 %19, label %31 [
    i32 5, label %tailrecurse.backedge.i
    i32 2, label %tailrecurse.backedge.i
    i32 7, label %tailrecurse.backedge.i
  ]

tailrecurse.backedge.i:                           ; preds = %31, %23, %23, %23
  %.sink33.i = phi i64 [ 32, %31 ], [ 48, %23 ], [ 48, %23 ], [ 48, %23 ]
  %.val16.i = load ptr, ptr %.tr30.i, align 8, !tbaa !3
  %24 = getelementptr i8, ptr %.tr30.i, i64 %.sink33.i
  %.val17.i = load ptr, ptr %24, align 8, !tbaa !29
  %25 = getelementptr i8, ptr %.val16.i, i64 32
  %.val16.val.i = load ptr, ptr %25, align 8, !tbaa !30
  %.val17.val.i = load i32, ptr %.val17.i, align 4, !tbaa !31
  %26 = getelementptr i8, ptr %.val16.val.i, i64 8
  %.val16.val.val.i = load ptr, ptr %26, align 8, !tbaa !32
  %27 = sext i32 %.val17.val.i to i64
  %28 = getelementptr inbounds ptr, ptr %.val16.val.val.i, i64 %27
  %.tr.be.i = load ptr, ptr %28, align 8, !tbaa !34
  %29 = getelementptr i8, ptr %.tr.be.i, i64 20
  %.val.i = load i32, ptr %29, align 4
  %30 = and i32 %.val.i, 15
  %.not.i10 = icmp eq i32 %30, 6
  br i1 %.not.i10, label %._crit_edge.i, label %.lr.ph.i

31:                                               ; preds = %23
  %32 = add nsw i32 %19, -5
  %narrow.i22.i = icmp ult i32 %32, -2
  br i1 %narrow.i22.i, label %Ptr_AbcObjName.exit, label %tailrecurse.backedge.i

Ptr_AbcObjName.exit:                              ; preds = %31, %._crit_edge.i
  %33 = phi i32 [ %.pre16, %._crit_edge.i ], [ %12, %31 ]
  %34 = phi i32 [ %.pre, %._crit_edge.i ], [ %13, %31 ]
  %.0.i = phi ptr [ %22, %._crit_edge.i ], [ null, %31 ]
  %35 = icmp eq i32 %34, %33
  br i1 %35, label %36, label %.Vec_PtrGrow.exit11_crit_edge.i

.Vec_PtrGrow.exit11_crit_edge.i:                  ; preds = %Ptr_AbcObjName.exit
  %.pre.i = load ptr, ptr %10, align 8, !tbaa !32
  br label %Vec_PtrPush.exit

36:                                               ; preds = %Ptr_AbcObjName.exit
  %37 = icmp slt i32 %33, 16
  br i1 %37, label %38, label %45

38:                                               ; preds = %36
  %39 = load ptr, ptr %10, align 8, !tbaa !32
  %.not9.i.i = icmp eq ptr %39, null
  br i1 %.not9.i.i, label %42, label %40

40:                                               ; preds = %38
  %41 = tail call dereferenceable_or_null(128) ptr @realloc(ptr noundef nonnull %39, i64 noundef 128) #21
  br label %Vec_PtrGrow.exit.i

42:                                               ; preds = %38
  %43 = tail call noalias dereferenceable_or_null(128) ptr @malloc(i64 noundef 128) #20
  br label %Vec_PtrGrow.exit.i

Vec_PtrGrow.exit.i:                               ; preds = %42, %40
  %44 = phi ptr [ %41, %40 ], [ %43, %42 ]
  store ptr %44, ptr %10, align 8, !tbaa !32
  store i32 16, ptr %4, align 8, !tbaa !36
  br label %Vec_PtrPush.exit

45:                                               ; preds = %36
  %46 = shl nuw nsw i32 %33, 1
  %47 = load ptr, ptr %10, align 8, !tbaa !32
  %.not9.i10.i = icmp eq ptr %47, null
  %48 = zext nneg i32 %46 to i64
  %49 = shl nuw nsw i64 %48, 3
  br i1 %.not9.i10.i, label %52, label %50

50:                                               ; preds = %45
  %51 = tail call ptr @realloc(ptr noundef nonnull %47, i64 noundef %49) #21
  br label %54

52:                                               ; preds = %45
  %53 = tail call noalias ptr @malloc(i64 noundef %49) #20
  br label %54

54:                                               ; preds = %52, %50
  %55 = phi ptr [ %51, %50 ], [ %53, %52 ]
  store ptr %55, ptr %10, align 8, !tbaa !32
  store i32 %46, ptr %4, align 8, !tbaa !36
  br label %Vec_PtrPush.exit

Vec_PtrPush.exit:                                 ; preds = %.Vec_PtrGrow.exit11_crit_edge.i, %Vec_PtrGrow.exit.i, %54
  %56 = phi i32 [ %33, %.Vec_PtrGrow.exit11_crit_edge.i ], [ %46, %54 ], [ 16, %Vec_PtrGrow.exit.i ]
  %57 = phi ptr [ %.pre.i, %.Vec_PtrGrow.exit11_crit_edge.i ], [ %55, %54 ], [ %44, %Vec_PtrGrow.exit.i ]
  %58 = add nsw i32 %34, 1
  store i32 %58, ptr %5, align 4, !tbaa !35
  %59 = sext i32 %34 to i64
  %60 = getelementptr inbounds ptr, ptr %57, i64 %59
  store ptr %.0.i, ptr %60, align 8, !tbaa !34
  %indvars.iv.next = add nuw nsw i64 %indvars.iv, 1
  %.val9 = load ptr, ptr %2, align 8, !tbaa !46
  %61 = getelementptr i8, ptr %.val9, i64 4
  %.val9.val = load i32, ptr %61, align 4, !tbaa !35
  %62 = sext i32 %.val9.val to i64
  %63 = icmp slt i64 %indvars.iv.next, %62
  br i1 %63, label %.lr.ph, label %.critedge, !llvm.loop !52

.critedge:                                        ; preds = %Vec_PtrPush.exit, %Vec_PtrAllocExact.exit.thread, %Vec_PtrAllocExact.exit
  ret ptr %4
}